target datalayout = "e-m:e-p270:32:32-p271:32:32-p272:64:64-i64:64-i128:128-f80:128-n8:16:32:64-S128"
target triple = "x86_64-pc-linux-gnu"

%struct._lv_lru_rb_t = type { %struct._lv_cache_t, %struct._lv_rb_t, %struct.lv_ll_t, ptr }
%struct._lv_cache_t = type { ptr, i32, i32, i32, %struct._lv_cache_ops_t, i32, ptr }
%struct._lv_cache_ops_t = type { ptr, ptr, ptr }
%struct._lv_rb_t = type { ptr, ptr, i64 }
%struct.lv_ll_t = type { i32, ptr, ptr }
%struct._lv_rb_node_t = type { ptr, ptr, ptr, i32, ptr }

; Function Attrs: nounwind uwtable
define internal void @drop_all_cb(ptr noundef %0, ptr noundef %1) #0 {
  %3 = alloca ptr, align 8
  %4 = alloca ptr, align 8
  %5 = alloca ptr, align 8
  %6 = alloca i32, align 4
  %7 = alloca i32, align 4
  %8 = alloca ptr, align 8
  %9 = alloca ptr, align 8
  %10 = alloca ptr, align 8
  store ptr %0, ptr %3, align 8, !tbaa !3
  store ptr %1, ptr %4, align 8, !tbaa !3
  call void @llvm.lifetime.start.p0(i64 8, ptr %5) #4
  %11 = load ptr, ptr %3, align 8, !tbaa !3
  store ptr %11, ptr %5, align 8, !tbaa !3
  br label %12

12:                                               ; preds = %2
  %13 = load ptr, ptr %5, align 8, !tbaa !3
  %14 = icmp ne ptr %13, null
  br i1 %14, label %21, label %15

15:                                               ; preds = %12
  br label %16

16:                                               ; preds = %15
  br label %17

17:                                               ; preds = %16
  br label %18

18:                                               ; preds = %17
  br label %19

19:                                               ; preds = %20, %18
  br label %20

20:                                               ; preds = %19
  br label %19

21:                                               ; preds = %12
  br label %22

22:                                               ; preds = %21
  br label %23

23:                                               ; preds = %22
  %24 = load ptr, ptr %5, align 8, !tbaa !3
  %25 = icmp eq ptr %24, null
  br i1 %25, label %26, label %27

26:                                               ; preds = %23
  store i32 1, ptr %6, align 4
  br label %81

27:                                               ; preds = %23
  call void @llvm.lifetime.start.p0(i64 4, ptr %7) #4
  store i32 0, ptr %7, align 4, !tbaa !25
  call void @llvm.lifetime.start.p0(i64 8, ptr %8) #4
  %28 = load ptr, ptr %5, align 8, !tbaa !3
  %29 = getelementptr inbounds nuw %struct._lv_lru_rb_t, ptr %28, i32 0, i32 2
  %30 = call ptr @lv_ll_get_head(ptr noundef %29)
  store ptr %30, ptr %8, align 8, !tbaa !3
  br label %31

31:                                               ; preds = %62, %27
  %32 = load ptr, ptr %8, align 8, !tbaa !3
  %33 = icmp ne ptr %32, null
  br i1 %33, label %34, label %67

34:                                               ; preds = %31
  call void @llvm.lifetime.start.p0(i64 8, ptr %9) #4
  %35 = load ptr, ptr %8, align 8, !tbaa !3
  %36 = load ptr, ptr %35, align 8, !tbaa !3
  %37 = getelementptr inbounds nuw %struct._lv_rb_node_t, ptr %36, i32 0, i32 4
  %38 = load ptr, ptr %37, align 8, !tbaa !21
  store ptr %38, ptr %9, align 8, !tbaa !3
  call void @llvm.lifetime.start.p0(i64 8, ptr %10) #4
  %39 = load ptr, ptr %9, align 8, !tbaa !3
  %40 = load ptr, ptr %3, align 8, !tbaa !3
  %41 = getelementptr inbounds nuw %struct._lv_cache_t, ptr %40, i32 0, i32 1
  %42 = load i32, ptr %41, align 8, !tbaa !23
  %43 = call ptr @lv_cache_entry_get_entry(ptr noundef %39, i32 noundef %42)
  store ptr %43, ptr %10, align 8, !tbaa !3
  %44 = load ptr, ptr %10, align 8, !tbaa !3
  %45 = call i32 @lv_cache_entry_get_ref(ptr noundef %44)
  %46 = icmp eq i32 %45, 0
  br i1 %46, label %47, label %55

47:                                               ; preds = %34
  %48 = load ptr, ptr %5, align 8, !tbaa !3
  %49 = getelementptr inbounds nuw %struct._lv_lru_rb_t, ptr %48, i32 0, i32 0
  %50 = getelementptr inbounds nuw %struct._lv_cache_t, ptr %49, i32 0, i32 4
  %51 = getelementptr inbounds nuw %struct._lv_cache_ops_t, ptr %50, i32 0, i32 2
  %52 = load ptr, ptr %51, align 8, !tbaa !15
  %53 = load ptr, ptr %9, align 8, !tbaa !3
  %54 = load ptr, ptr %4, align 8, !tbaa !3
  call void %52(ptr noundef %53, ptr noundef %54)
  br label %61

55:                                               ; preds = %34
  br label %56

56:                                               ; preds = %55
  br label %57

57:                                               ; preds = %56
  br label %58

58:                                               ; preds = %57
  %59 = load i32, ptr %7, align 4, !tbaa !25
  %60 = add i32 %59, 1
  store i32 %60, ptr %7, align 4, !tbaa !25
  br label %61

61:                                               ; preds = %58, %47
  call void @llvm.lifetime.end.p0(i64 8, ptr %10) #4
  call void @llvm.lifetime.end.p0(i64 8, ptr %9) #4
  br label %62

62:                                               ; preds = %61
  %63 = load ptr, ptr %5, align 8, !tbaa !3
  %64 = getelementptr inbounds nuw %struct._lv_lru_rb_t, ptr %63, i32 0, i32 2
  %65 = load ptr, ptr %8, align 8, !tbaa !3
  %66 = call ptr @lv_ll_get_next(ptr noundef %64, ptr noundef %65)
  store ptr %66, ptr %8, align 8, !tbaa !3
  br label %31, !llvm.loop !26

67:                                               ; preds = %31
  %68 = load i32, ptr %7, align 4, !tbaa !25
  %69 = icmp ugt i32 %68, 0
  br i1 %69, label %70, label %74

70:                                               ; preds = %67
  br label %71

71:                                               ; preds = %70
  br label %72

72:                                               ; preds = %71
  br label %73

73:                                               ; preds = %72
  br label %74

74:                                               ; preds = %73, %67
  %75 = load ptr, ptr %5, align 8, !tbaa !3
  %76 = getelementptr inbounds nuw %struct._lv_lru_rb_t, ptr %75, i32 0, i32 1
  call void @lv_rb_destroy(ptr noundef %76)
  %77 = load ptr, ptr %5, align 8, !tbaa !3
  %78 = getelementptr inbounds nuw %struct._lv_lru_rb_t, ptr %77, i32 0, i32 2
  call void @lv_ll_clear(ptr noundef %78)
  %79 = load ptr, ptr %3, align 8, !tbaa !3
  %80 = getelementptr inbounds nuw %struct._lv_cache_t, ptr %79, i32 0, i32 3
  store i32 0, ptr %80, align 8, !tbaa !24
  call void @llvm.lifetime.end.p0(i64 8, ptr %8) #4
  call void @llvm.lifetime.end.p0(i64 4, ptr %7) #4
  store i32 0, ptr %6, align 4
  br label %81

81:                                               ; preds = %74, %26
  call void @llvm.lifetime.end.p0(i64 8, ptr %5) #4
  %82 = load i32, ptr %6, align 4
  switch i32 %82, label %84 [
    i32 0, label %83
    i32 1, label %83
  ]

83:                                               ; preds = %81, %81
  ret void

84:                                               ; preds = %81
  unreachable
}