; Function Attrs: nounwind uwtable
define internal void @drop_all_cb(ptr noundef %0, ptr noundef %1) #0 {
  %.not = icmp eq ptr %0, null
  br i1 %.not, label %.preheader, label %3

.preheader:                                       ; preds = %2, %.preheader
  br label %.preheader

3:                                                ; preds = %2
  %4 = getelementptr inbounds nuw i8, ptr %0, i64 88
  %5 = tail call ptr @lv_ll_get_head(ptr noundef nonnull %4) #5
  %.not2021 = icmp eq ptr %5, null
  br i1 %.not2021, label %._crit_edge, label %.lr.ph

.lr.ph:                                           ; preds = %3
  %6 = getelementptr inbounds nuw i8, ptr %0, i64 8
  %7 = getelementptr inbounds nuw i8, ptr %0, i64 40
  br label %8

8:                                                ; preds = %.lr.ph, %18
  %.01822 = phi ptr [ %5, %.lr.ph ], [ %19, %18 ]
  %9 = load ptr, ptr %.01822, align 8, !tbaa !20
  %10 = getelementptr inbounds nuw i8, ptr %9, i64 32
  %11 = load ptr, ptr %10, align 8, !tbaa !21
  %12 = load i32, ptr %6, align 8, !tbaa !23
  %13 = tail call ptr @lv_cache_entry_get_entry(ptr noundef %11, i32 noundef %12) #5
  %14 = tail call i32 @lv_cache_entry_get_ref(ptr noundef %13) #5
  %15 = icmp eq i32 %14, 0
  br i1 %15, label %16, label %18

16:                                               ; preds = %8
  %17 = load ptr, ptr %7, align 8, !tbaa !14
  tail call void %17(ptr noundef %11, ptr noundef %1) #5
  br label %18

18:                                               ; preds = %8, %16
  %19 = tail call ptr @lv_ll_get_next(ptr noundef nonnull %4, ptr noundef nonnull %.01822) #5
  %.not20 = icmp eq ptr %19, null
  br i1 %.not20, label %._crit_edge, label %8, !llvm.loop !26

._crit_edge:                                      ; preds = %18, %3
  %20 = getelementptr inbounds nuw i8, ptr %0, i64 64
  tail call void @lv_rb_destroy(ptr noundef nonnull %20) #5
  tail call void @lv_ll_clear(ptr noundef nonnull %4) #5
  %21 = getelementptr inbounds nuw i8, ptr %0, i64 16
  store i32 0, ptr %21, align 8, !tbaa !25
  ret void
}